; Function Attrs: mustprogress nofree norecurse nosync nounwind willreturn memory(argmem: write) uwtable
define void @_ZN14gmx_multisim_tC2EiiP10tmpi_comm_S1_(ptr nocapture noundef nonnull writeonly align 8 dereferenceable(24) %0, i32 noundef %1, i32 noundef %2, ptr noundef %3, ptr noundef %4) unnamed_addr #11 align 2 {
  store i32 %1, ptr %0, align 8
  %6 = getelementptr inbounds i8, ptr %0, i64 4
  store i32 %2, ptr %6, align 4
  %7 = getelementptr inbounds i8, ptr %0, i64 8
  store ptr %3, ptr %7, align 8
  %8 = getelementptr inbounds i8, ptr %0, i64 16
  store ptr %4, ptr %8, align 8
  ret void
}